; Function Attrs: mustprogress uwtable
define internal void @_ZN7rocksdb12_GLOBAL__N_18PosixEnv26LowerThreadPoolCPUPriorityENS_3Env8PriorityE(ptr nocapture noundef nonnull readonly align 8 dereferenceable(200) %this, i32 noundef %pool) unnamed_addr #3 align 2 {
entry:
  %thread_pools_ = getelementptr inbounds i8, ptr %this, i64 168
  %0 = load ptr, ptr %thread_pools_, align 8
  %conv = zext i32 %pool to i64
  %1 = load ptr, ptr %0, align 8
  %add.ptr.i = getelementptr inbounds %"class.rocksdb::ThreadPoolImpl", ptr %1, i64 %conv
  tail call void @_ZN7rocksdb14ThreadPoolImpl16LowerCPUPriorityENS_11CpuPriorityE(ptr noundef nonnull align 8 dereferenceable(16) %add.ptr.i, i32 noundef 1)
  ret void
}